target datalayout = "e-m:e-p270:32:32-p271:32:32-p272:64:64-i64:64-i128:128-f80:128-n8:16:32:64-S128"
target triple = "x86_64-pc-linux-gnu"

%"class.boost::core::basic_string_view" = type { ptr, i64 }
%"class.boost::urls::detail::format_args" = type { ptr, i64 }
%"class.boost::urls::detail::format_arg" = type <{ ptr, ptr, ptr, %"class.boost::core::basic_string_view", i64, i8, [7 x i8] }>
%"struct.boost::urls::detail::ignore_format" = type { i8 }

; Function Attrs: mustprogress nounwind uwtable
define linkonce_odr hidden noundef i32 @_ZNSt11char_traitsIcE7compareEPKcS2_m(ptr noundef %0, ptr noundef %1, i64 noundef %2) #4 comdat align 2 {
  %4 = alloca i32, align 4
  %5 = alloca ptr, align 8
  %6 = alloca ptr, align 8
  %7 = alloca i64, align 8
  store ptr %0, ptr %5, align 8, !tbaa !4
  store ptr %1, ptr %6, align 8, !tbaa !4
  store i64 %2, ptr %7, align 8, !tbaa !8
  %8 = load i64, ptr %7, align 8, !tbaa !8
  %9 = icmp eq i64 %8, 0
  br i1 %9, label %10, label %11

10:                                               ; preds = %3
  store i32 0, ptr %4, align 4
  br label %16

11:                                               ; preds = %3
  %12 = load ptr, ptr %5, align 8, !tbaa !4
  %13 = load ptr, ptr %6, align 8, !tbaa !4
  %14 = load i64, ptr %7, align 8, !tbaa !8
  %15 = call i32 @memcmp(ptr noundef %12, ptr noundef %13, i64 noundef %14) #13
  store i32 %15, ptr %4, align 4
  br label %16

16:                                               ; preds = %11, %10
  %17 = load i32, ptr %4, align 4
  ret i32 %17
}

; Function Attrs: mustprogress nounwind uwtable
define linkonce_odr hidden noundef ptr @_ZNK5boost4core17basic_string_viewIcE4dataEv(ptr noundef nonnull align 8 dereferenceable(16) %0) #4 comdat align 2 {
  %2 = alloca ptr, align 8
  store ptr %0, ptr %2, align 8, !tbaa !4
  %3 = load ptr, ptr %2, align 8
  %4 = getelementptr inbounds nuw %"class.boost::core::basic_string_view", ptr %3, i32 0, i32 0
  %5 = load ptr, ptr %4, align 8, !tbaa !13
  ret ptr %5
}

; Function Attrs: mustprogress nounwind uwtable
define linkonce_odr hidden noundef i64 @_ZNK5boost4core17basic_string_viewIcE4sizeEv(ptr noundef nonnull align 8 dereferenceable(16) %0) #4 comdat align 2 {
  %2 = alloca ptr, align 8
  store ptr %0, ptr %2, align 8, !tbaa !4
  %3 = load ptr, ptr %2, align 8
  %4 = getelementptr inbounds nuw %"class.boost::core::basic_string_view", ptr %3, i32 0, i32 1
  %5 = load i64, ptr %4, align 8, !tbaa !15
  ret i64 %5
}

; Function Attrs: mustprogress nounwind uwtable
define linkonce_odr hidden noundef i64 @_ZN5boost4urls6detail10get_uvalueINS1_13ignore_formatETnNSt9enable_ifIXntsr3std11is_integralINSt5decayIT_E4typeEEE5valueEiE4typeELi0EEEmOS6_(ptr noundef nonnull align 1 dereferenceable(1) %0) #4 comdat {
  %2 = alloca ptr, align 8
  store ptr %0, ptr %2, align 8, !tbaa !4
  ret i64 0
}

; Function Attrs: mustprogress nounwind uwtable
define linkonce_odr hidden void @_ZN5boost4core17basic_string_viewIcEC2Ev(ptr noundef nonnull align 8 dereferenceable(16) %0) unnamed_addr #4 comdat align 2 {
  %2 = alloca ptr, align 8
  store ptr %0, ptr %2, align 8, !tbaa !4
  %3 = load ptr, ptr %2, align 8
  %4 = getelementptr inbounds nuw %"class.boost::core::basic_string_view", ptr %3, i32 0, i32 0
  store ptr null, ptr %4, align 8, !tbaa !13
  %5 = getelementptr inbounds nuw %"class.boost::core::basic_string_view", ptr %3, i32 0, i32 1
  store i64 0, ptr %5, align 8, !tbaa !15
  ret void
}

; Function Attrs: mustprogress nounwind uwtable
define linkonce_odr hidden noundef zeroext i1 @_ZN5boost4coreeqENS0_17basic_string_viewIcEES2_(ptr %0, i64 %1, ptr %2, i64 %3) #4 comdat personality ptr @__gxx_personality_v0 {
  %5 = alloca %"class.boost::core::basic_string_view", align 8
  %6 = alloca %"class.boost::core::basic_string_view", align 8
  %7 = getelementptr inbounds nuw { ptr, i64 }, ptr %5, i32 0, i32 0
  store ptr %0, ptr %7, align 8
  %8 = getelementptr inbounds nuw { ptr, i64 }, ptr %5, i32 0, i32 1
  store i64 %1, ptr %8, align 8
  %9 = getelementptr inbounds nuw { ptr, i64 }, ptr %6, i32 0, i32 0
  store ptr %2, ptr %9, align 8
  %10 = getelementptr inbounds nuw { ptr, i64 }, ptr %6, i32 0, i32 1
  store i64 %3, ptr %10, align 8
  %11 = call noundef i64 @_ZNK5boost4core17basic_string_viewIcE4sizeEv(ptr noundef nonnull align 8 dereferenceable(16) %5) #13
  %12 = call noundef i64 @_ZNK5boost4core17basic_string_viewIcE4sizeEv(ptr noundef nonnull align 8 dereferenceable(16) %6) #13
  %13 = icmp eq i64 %11, %12
  br i1 %13, label %14, label %21

14:                                               ; preds = %4
  %15 = call noundef ptr @_ZNK5boost4core17basic_string_viewIcE4dataEv(ptr noundef nonnull align 8 dereferenceable(16) %5) #13
  %16 = call noundef ptr @_ZNK5boost4core17basic_string_viewIcE4dataEv(ptr noundef nonnull align 8 dereferenceable(16) %6) #13
  %17 = call noundef i64 @_ZNK5boost4core17basic_string_viewIcE4sizeEv(ptr noundef nonnull align 8 dereferenceable(16) %5) #13
  %18 = invoke noundef i32 @_ZNSt11char_traitsIcE7compareEPKcS2_m(ptr noundef %15, ptr noundef %16, i64 noundef %17)
          to label %19 unwind label %23

19:                                               ; preds = %14
  %20 = icmp eq i32 %18, 0
  br label %21

21:                                               ; preds = %19, %4
  %22 = phi i1 [ false, %4 ], [ %20, %19 ]
  ret i1 %22

23:                                               ; preds = %14
  %24 = landingpad { ptr, i32 }
          catch ptr null
  %25 = extractvalue { ptr, i32 } %24, 0
  call void @__clang_call_terminate(ptr %25) #14
  unreachable
}

; Function Attrs: mustprogress nounwind uwtable
define linkonce_odr hidden { ptr, i64 } @_ZNK5boost4urls6detail10format_arg4nameEv(ptr noundef nonnull align 8 dereferenceable(49) %0) #4 comdat align 2 {
  %2 = alloca %"class.boost::core::basic_string_view", align 8
  %3 = alloca ptr, align 8
  store ptr %0, ptr %3, align 8, !tbaa !4
  %4 = load ptr, ptr %3, align 8
  %5 = getelementptr inbounds nuw %"class.boost::urls::detail::format_arg", ptr %4, i32 0, i32 3
  call void @llvm.memcpy.p0.p0.i64(ptr align 8 %2, ptr align 8 %5, i64 16, i1 false), !tbaa.struct !3
  %6 = load { ptr, i64 }, ptr %2, align 8
  ret { ptr, i64 } %6
}

; Function Attrs: noinline noreturn nounwind uwtable
define linkonce_odr hidden void @__clang_call_terminate(ptr noundef %0) #0 comdat {
  %2 = call ptr @__cxa_begin_catch(ptr %0) #13
  call void @_ZSt9terminatev() #14
  unreachable
}

; Function Attrs: mustprogress uwtable
define linkonce_odr hidden void @_ZN5boost4urls6detail10format_argC2INS1_13ignore_formatEEEOT_(ptr noundef nonnull align 8 dereferenceable(49) %0, ptr noundef nonnull align 1 dereferenceable(1) %1) unnamed_addr #2 comdat align 2 {
  %3 = alloca ptr, align 8
  %4 = alloca ptr, align 8
  store ptr %0, ptr %3, align 8, !tbaa !4
  store ptr %1, ptr %4, align 8, !tbaa !4
  %5 = load ptr, ptr %3, align 8
  %6 = getelementptr inbounds nuw %"class.boost::urls::detail::format_arg", ptr %5, i32 0, i32 0
  %7 = load ptr, ptr %4, align 8, !tbaa !4
  store ptr %7, ptr %6, align 8, !tbaa !92
  %8 = getelementptr inbounds nuw %"class.boost::urls::detail::format_arg", ptr %5, i32 0, i32 1
  store ptr @_ZN5boost4urls6detail10format_arg12measure_implINS1_13ignore_formatEEEvRNS1_20format_parse_contextERNS1_15measure_contextERKNS0_7grammar9lut_charsEPKv, ptr %8, align 8, !tbaa !93
  %9 = getelementptr inbounds nuw %"class.boost::urls::detail::format_arg", ptr %5, i32 0, i32 2
  store ptr @_ZN5boost4urls6detail10format_arg11format_implINS1_13ignore_formatEEEvRNS1_20format_parse_contextERNS1_14format_contextERKNS0_7grammar9lut_charsEPKv, ptr %9, align 8, !tbaa !94
  %10 = getelementptr inbounds nuw %"class.boost::urls::detail::format_arg", ptr %5, i32 0, i32 3
  call void @_ZN5boost4core17basic_string_viewIcEC2Ev(ptr noundef nonnull align 8 dereferenceable(16) %10) #13
  %11 = getelementptr inbounds nuw %"class.boost::urls::detail::format_arg", ptr %5, i32 0, i32 4
  %12 = load ptr, ptr %4, align 8, !tbaa !4
  %13 = call noundef i64 @_ZN5boost4urls6detail10get_uvalueINS1_13ignore_formatETnNSt9enable_ifIXntsr3std11is_integralINSt5decayIT_E4typeEEE5valueEiE4typeELi0EEEmOS6_(ptr noundef nonnull align 1 dereferenceable(1) %12)
  store i64 %13, ptr %11, align 8, !tbaa !56
  %14 = getelementptr inbounds nuw %"class.boost::urls::detail::format_arg", ptr %5, i32 0, i32 5
  store i8 1, ptr %14, align 8, !tbaa !95
  ret void
}

; Function Attrs: mustprogress nounwind uwtable
define linkonce_odr hidden noundef i64 @_ZNK5boost4urls6detail10format_arg5valueEv(ptr noundef nonnull align 8 dereferenceable(49) %0) #4 comdat align 2 {
  %2 = alloca ptr, align 8
  store ptr %0, ptr %2, align 8, !tbaa !4
  %3 = load ptr, ptr %2, align 8
  %4 = getelementptr inbounds nuw %"class.boost::urls::detail::format_arg", ptr %3, i32 0, i32 4
  %5 = load i64, ptr %4, align 8, !tbaa !56
  ret i64 %5
}

; Function Attrs: mustprogress nounwind uwtable
define linkonce_odr hidden void @_ZNK5boost4urls6detail11format_args3getENS_4core17basic_string_viewIcEE(ptr dead_on_unwind noalias writable sret(%"class.boost::urls::detail::format_arg") align 8 %0, ptr noundef nonnull align 8 dereferenceable(16) %1, ptr %2, i64 %3) #4 comdat align 2 personality ptr @__gxx_personality_v0 {
  %5 = alloca %"class.boost::core::basic_string_view", align 8
  %6 = alloca ptr, align 8
  %7 = alloca i64, align 8
  %8 = alloca i32, align 4
  %9 = alloca %"class.boost::core::basic_string_view", align 8
  %10 = alloca %"class.boost::core::basic_string_view", align 8
  %11 = getelementptr inbounds nuw { ptr, i64 }, ptr %5, i32 0, i32 0
  store ptr %2, ptr %11, align 8
  %12 = getelementptr inbounds nuw { ptr, i64 }, ptr %5, i32 0, i32 1
  store i64 %3, ptr %12, align 8
  store ptr %1, ptr %6, align 8, !tbaa !4
  %13 = load ptr, ptr %6, align 8
  call void @llvm.lifetime.start.p0(i64 8, ptr %7) #13
  store i64 0, ptr %7, align 8, !tbaa !8
  br label %14

14:                                               ; preds = %46, %4
  %15 = load i64, ptr %7, align 8, !tbaa !8
  %16 = getelementptr inbounds nuw %"class.boost::urls::detail::format_args", ptr %13, i32 0, i32 1
  %17 = load i64, ptr %16, align 8, !tbaa !53
  %18 = icmp ult i64 %15, %17
  br i1 %18, label %20, label %19

19:                                               ; preds = %14
  store i32 2, ptr %8, align 4
  br label %49

20:                                               ; preds = %14
  %21 = getelementptr inbounds nuw %"class.boost::urls::detail::format_args", ptr %13, i32 0, i32 0
  %22 = load ptr, ptr %21, align 8, !tbaa !54
  %23 = load i64, ptr %7, align 8, !tbaa !8
  %24 = getelementptr inbounds nuw %"class.boost::urls::detail::format_arg", ptr %22, i64 %23
  %25 = invoke { ptr, i64 } @_ZNK5boost4urls6detail10format_arg4nameEv(ptr noundef nonnull align 8 dereferenceable(49) %24)
          to label %26 unwind label %54

26:                                               ; preds = %20
  %27 = getelementptr inbounds nuw { ptr, i64 }, ptr %9, i32 0, i32 0
  %28 = extractvalue { ptr, i64 } %25, 0
  store ptr %28, ptr %27, align 8
  %29 = getelementptr inbounds nuw { ptr, i64 }, ptr %9, i32 0, i32 1
  %30 = extractvalue { ptr, i64 } %25, 1
  store i64 %30, ptr %29, align 8
  call void @llvm.memcpy.p0.p0.i64(ptr align 8 %10, ptr align 8 %5, i64 16, i1 false), !tbaa.struct !3
  %31 = getelementptr inbounds nuw { ptr, i64 }, ptr %9, i32 0, i32 0
  %32 = load ptr, ptr %31, align 8
  %33 = getelementptr inbounds nuw { ptr, i64 }, ptr %9, i32 0, i32 1
  %34 = load i64, ptr %33, align 8
  %35 = getelementptr inbounds nuw { ptr, i64 }, ptr %10, i32 0, i32 0
  %36 = load ptr, ptr %35, align 8
  %37 = getelementptr inbounds nuw { ptr, i64 }, ptr %10, i32 0, i32 1
  %38 = load i64, ptr %37, align 8
  %39 = call noundef zeroext i1 @_ZN5boost4coreeqENS0_17basic_string_viewIcEES2_(ptr %32, i64 %34, ptr %36, i64 %38) #13
  br i1 %39, label %40, label %45

40:                                               ; preds = %26
  %41 = getelementptr inbounds nuw %"class.boost::urls::detail::format_args", ptr %13, i32 0, i32 0
  %42 = load ptr, ptr %41, align 8, !tbaa !54
  %43 = load i64, ptr %7, align 8, !tbaa !8
  %44 = getelementptr inbounds nuw %"class.boost::urls::detail::format_arg", ptr %42, i64 %43
  call void @llvm.memcpy.p0.p0.i64(ptr align 8 %0, ptr align 8 %44, i64 56, i1 false), !tbaa.struct !36
  store i32 1, ptr %8, align 4
  br label %49

45:                                               ; preds = %26
  br label %46

46:                                               ; preds = %45
  %47 = load i64, ptr %7, align 8, !tbaa !8
  %48 = add i64 %47, 1
  store i64 %48, ptr %7, align 8, !tbaa !8
  br label %14, !llvm.loop !55

49:                                               ; preds = %40, %19
  call void @llvm.lifetime.end.p0(i64 8, ptr %7) #13
  %50 = load i32, ptr %8, align 4
  switch i32 %50, label %57 [
    i32 2, label %51
    i32 1, label %53
  ]

51:                                               ; preds = %49
  invoke void @_ZN5boost4urls6detail10format_argC2Ev(ptr noundef nonnull align 8 dereferenceable(49) %0)
          to label %52 unwind label %54

52:                                               ; preds = %51
  br label %53

53:                                               ; preds = %52, %49
  ret void

54:                                               ; preds = %51, %20
  %55 = landingpad { ptr, i32 }
          catch ptr null
  %56 = extractvalue { ptr, i32 } %55, 0
  call void @__clang_call_terminate(ptr %56) #14
  unreachable

57:                                               ; preds = %49
  unreachable
}

; Function Attrs: mustprogress nounwind uwtable
define linkonce_odr hidden void @_ZNK5boost4urls6detail11format_args3getEm(ptr dead_on_unwind noalias writable sret(%"class.boost::urls::detail::format_arg") align 8 %0, ptr noundef nonnull align 8 dereferenceable(16) %1, i64 noundef %2) #4 comdat align 2 personality ptr @__gxx_personality_v0 {
  %4 = alloca ptr, align 8
  %5 = alloca i64, align 8
  store ptr %1, ptr %4, align 8, !tbaa !4
  store i64 %2, ptr %5, align 8, !tbaa !8
  %6 = load ptr, ptr %4, align 8
  %7 = load i64, ptr %5, align 8, !tbaa !8
  %8 = getelementptr inbounds nuw %"class.boost::urls::detail::format_args", ptr %6, i32 0, i32 1
  %9 = load i64, ptr %8, align 8, !tbaa !53
  %10 = icmp ult i64 %7, %9
  br i1 %10, label %11, label %16

11:                                               ; preds = %3
  %12 = getelementptr inbounds nuw %"class.boost::urls::detail::format_args", ptr %6, i32 0, i32 0
  %13 = load ptr, ptr %12, align 8, !tbaa !54
  %14 = load i64, ptr %5, align 8, !tbaa !8
  %15 = getelementptr inbounds nuw %"class.boost::urls::detail::format_arg", ptr %13, i64 %14
  call void @llvm.memcpy.p0.p0.i64(ptr align 8 %0, ptr align 8 %15, i64 56, i1 false), !tbaa.struct !36
  br label %18

16:                                               ; preds = %3
  invoke void @_ZN5boost4urls6detail10format_argC2Ev(ptr noundef nonnull align 8 dereferenceable(49) %0)
          to label %17 unwind label %19

17:                                               ; preds = %16
  br label %18

18:                                               ; preds = %17, %11
  ret void

19:                                               ; preds = %16
  %20 = landingpad { ptr, i32 }
          catch ptr null
  %21 = extractvalue { ptr, i32 } %20, 0
  call void @__clang_call_terminate(ptr %21) #14
  unreachable
}

; Function Attrs: mustprogress uwtable
define linkonce_odr hidden void @_ZN5boost4urls6detail10format_argC2Ev(ptr noundef nonnull align 8 dereferenceable(49) %0) unnamed_addr #2 comdat align 2 {
  %2 = alloca ptr, align 8
  %3 = alloca %"struct.boost::urls::detail::ignore_format", align 1
  store ptr %0, ptr %2, align 8, !tbaa !4
  %4 = load ptr, ptr %2, align 8
  call void @llvm.lifetime.start.p0(i64 1, ptr %3) #13
  call void @_ZN5boost4urls6detail10format_argC2INS1_13ignore_formatEEEOT_(ptr noundef nonnull align 8 dereferenceable(49) %4, ptr noundef nonnull align 1 dereferenceable(1) %3)
  call void @llvm.lifetime.end.p0(i64 1, ptr %3) #13
  ret void
}

; Function Attrs: mustprogress uwtable
define void @_ZN5boost4urls6detail19get_width_from_argsEmNS_4core17basic_string_viewIcEENS1_11format_argsERm(i64 noundef %0, ptr %1, i64 %2, ptr %3, i64 %4, ptr noundef nonnull align 8 dereferenceable(8) %5) #2 {
  %7 = alloca %"class.boost::core::basic_string_view", align 8
  %8 = alloca %"class.boost::urls::detail::format_args", align 8
  %9 = alloca i64, align 8
  %10 = alloca ptr, align 8
  %11 = alloca %"class.boost::urls::detail::format_arg", align 8
  %12 = alloca %"class.boost::urls::detail::format_arg", align 8
  %13 = alloca %"class.boost::urls::detail::format_arg", align 8
  %14 = alloca %"class.boost::core::basic_string_view", align 8
  %15 = getelementptr inbounds nuw { ptr, i64 }, ptr %7, i32 0, i32 0
  store ptr %1, ptr %15, align 8
  %16 = getelementptr inbounds nuw { ptr, i64 }, ptr %7, i32 0, i32 1
  store i64 %2, ptr %16, align 8
  %17 = getelementptr inbounds nuw { ptr, i64 }, ptr %8, i32 0, i32 0
  store ptr %3, ptr %17, align 8
  %18 = getelementptr inbounds nuw { ptr, i64 }, ptr %8, i32 0, i32 1
  store i64 %4, ptr %18, align 8
  store i64 %0, ptr %9, align 8, !tbaa !8
  store ptr %5, ptr %10, align 8, !tbaa !4
  call void @llvm.lifetime.start.p0(i64 56, ptr %11) #13
  call void @_ZN5boost4urls6detail10format_argC2Ev(ptr noundef nonnull align 8 dereferenceable(49) %11)
  %19 = load i64, ptr %9, align 8, !tbaa !8
  %20 = icmp ne i64 %19, -1
  br i1 %20, label %21, label %23

21:                                               ; preds = %6
  call void @llvm.lifetime.start.p0(i64 56, ptr %12) #13
  %22 = load i64, ptr %9, align 8, !tbaa !8
  call void @_ZNK5boost4urls6detail11format_args3getEm(ptr dead_on_unwind writable sret(%"class.boost::urls::detail::format_arg") align 8 %12, ptr noundef nonnull align 8 dereferenceable(16) %8, i64 noundef %22) #13
  call void @llvm.memcpy.p0.p0.i64(ptr align 8 %11, ptr align 8 %12, i64 49, i1 false), !tbaa.struct !36
  call void @llvm.lifetime.end.p0(i64 56, ptr %12) #13
  br label %28

23:                                               ; preds = %6
  call void @llvm.lifetime.start.p0(i64 56, ptr %13) #13
  call void @llvm.memcpy.p0.p0.i64(ptr align 8 %14, ptr align 8 %7, i64 16, i1 false), !tbaa.struct !3
  %24 = getelementptr inbounds nuw { ptr, i64 }, ptr %14, i32 0, i32 0
  %25 = load ptr, ptr %24, align 8
  %26 = getelementptr inbounds nuw { ptr, i64 }, ptr %14, i32 0, i32 1
  %27 = load i64, ptr %26, align 8
  call void @_ZNK5boost4urls6detail11format_args3getENS_4core17basic_string_viewIcEE(ptr dead_on_unwind writable sret(%"class.boost::urls::detail::format_arg") align 8 %13, ptr noundef nonnull align 8 dereferenceable(16) %8, ptr %25, i64 %27) #13
  call void @llvm.memcpy.p0.p0.i64(ptr align 8 %11, ptr align 8 %13, i64 49, i1 false), !tbaa.struct !36
  call void @llvm.lifetime.end.p0(i64 56, ptr %13) #13
  br label %28

28:                                               ; preds = %23, %21
  %29 = call noundef i64 @_ZNK5boost4urls6detail10format_arg5valueEv(ptr noundef nonnull align 8 dereferenceable(49) %11)
  %30 = load ptr, ptr %10, align 8, !tbaa !4
  store i64 %29, ptr %30, align 8, !tbaa !8
  call void @llvm.lifetime.end.p0(i64 56, ptr %11) #13
  ret void
}