; Function Attrs: mustprogress nofree nounwind memory(read, argmem: readwrite, inaccessiblemem: none) uwtable
define void @_ZN5boost4urls6detail19get_width_from_argsEmNS_4core17basic_string_viewIcEENS1_11format_argsERm(i64 noundef %0, ptr nocapture readonly %1, i64 %2, ptr nocapture readonly %3, i64 %4, ptr nocapture noundef nonnull writeonly align 8 dereferenceable(8) %5) local_unnamed_addr #7 personality ptr @__gxx_personality_v0 {
  %.fr38 = freeze i64 %2
  %.not = icmp eq i64 %0, -1
  br i1 %.not, label %9, label %7

7:                                                ; preds = %6
  %8 = icmp ult i64 %0, %4
  br i1 %8, label %_ZNK5boost4urls6detail11format_args3getEm.exit.sink.split, label %_ZNK5boost4urls6detail11format_args3getEm.exit

9:                                                ; preds = %6
  %.not.i = icmp eq i64 %4, 0
  br i1 %.not.i, label %_ZNK5boost4urls6detail11format_args3getEm.exit, label %.lr.ph.i

.lr.ph.i:                                         ; preds = %9
  %10 = icmp eq i64 %.fr38, 0
  br i1 %10, label %.lr.ph.i.split.us, label %.lr.ph.i.split

.lr.ph.i.split.us:                                ; preds = %.lr.ph.i, %_ZN5boost4coreeqENS0_17basic_string_viewIcEES2_.exit.thread10.i.us
  %.014.i.us = phi i64 [ %12, %_ZN5boost4coreeqENS0_17basic_string_viewIcEES2_.exit.thread10.i.us ], [ 0, %.lr.ph.i ]
  %.sroa.2.0..sroa_idx.i.i.us = getelementptr inbounds %"class.boost::urls::detail::format_arg", ptr %3, i64 %.014.i.us, i32 3, i32 1
  %.sroa.2.0.copyload.i.i.us = load i64, ptr %.sroa.2.0..sroa_idx.i.i.us, align 8, !tbaa !45, !noalias !80
  %11 = icmp eq i64 %.sroa.2.0.copyload.i.i.us, 0
  br i1 %11, label %_ZNK5boost4urls6detail11format_args3getEm.exit.sink.split, label %_ZN5boost4coreeqENS0_17basic_string_viewIcEES2_.exit.thread10.i.us

_ZN5boost4coreeqENS0_17basic_string_viewIcEES2_.exit.thread10.i.us: ; preds = %.lr.ph.i.split.us
  %12 = add nuw i64 %.014.i.us, 1
  %exitcond.not.i.us = icmp eq i64 %12, %4
  br i1 %exitcond.not.i.us, label %_ZNK5boost4urls6detail11format_args3getEm.exit, label %.lr.ph.i.split.us, !llvm.loop !73

.lr.ph.i.split:                                   ; preds = %.lr.ph.i, %_ZN5boost4coreeqENS0_17basic_string_viewIcEES2_.exit.thread10.i
  %.014.i = phi i64 [ %17, %_ZN5boost4coreeqENS0_17basic_string_viewIcEES2_.exit.thread10.i ], [ 0, %.lr.ph.i ]
  %13 = getelementptr inbounds nuw %"class.boost::urls::detail::format_arg", ptr %3, i64 %.014.i
  %.sroa.2.0..sroa_idx.i.i = getelementptr inbounds i8, ptr %13, i64 32
  %.sroa.2.0.copyload.i.i = load i64, ptr %.sroa.2.0..sroa_idx.i.i, align 8, !tbaa !45, !noalias !80
  %14 = icmp eq i64 %.sroa.2.0.copyload.i.i, %.fr38
  br i1 %14, label %_ZN5boost4coreeqENS0_17basic_string_viewIcEES2_.exit.i, label %_ZN5boost4coreeqENS0_17basic_string_viewIcEES2_.exit.thread10.i

_ZN5boost4coreeqENS0_17basic_string_viewIcEES2_.exit.i: ; preds = %.lr.ph.i.split
  %15 = getelementptr inbounds nuw i8, ptr %13, i64 24
  %.sroa.0.0.copyload.i.i = load ptr, ptr %15, align 8, !tbaa !6, !noalias !80
  %bcmp.i.i = tail call i32 @bcmp(ptr %.sroa.0.0.copyload.i.i, ptr %1, i64 %.fr38), !noalias !80
  %16 = icmp eq i32 %bcmp.i.i, 0
  br i1 %16, label %_ZNK5boost4urls6detail11format_args3getEm.exit.sink.split, label %_ZN5boost4coreeqENS0_17basic_string_viewIcEES2_.exit.thread10.i

_ZN5boost4coreeqENS0_17basic_string_viewIcEES2_.exit.thread10.i: ; preds = %_ZN5boost4coreeqENS0_17basic_string_viewIcEES2_.exit.i, %.lr.ph.i.split
  %17 = add nuw i64 %.014.i, 1
  %exitcond.not.i = icmp eq i64 %17, %4
  br i1 %exitcond.not.i, label %_ZNK5boost4urls6detail11format_args3getEm.exit, label %.lr.ph.i.split, !llvm.loop !73

_ZNK5boost4urls6detail11format_args3getEm.exit.sink.split: ; preds = %_ZN5boost4coreeqENS0_17basic_string_viewIcEES2_.exit.i, %.lr.ph.i.split.us, %7
  %.sink = phi i64 [ %0, %7 ], [ %.014.i.us, %.lr.ph.i.split.us ], [ %.014.i, %_ZN5boost4coreeqENS0_17basic_string_viewIcEES2_.exit.i ]
  %.sroa.7.sroa.5.0..sroa.7.0..sroa_idx.sroa_idx = getelementptr inbounds %"class.boost::urls::detail::format_arg", ptr %3, i64 %.sink, i32 4
  %.sroa.7.sroa.5.0.copyload = load i64, ptr %.sroa.7.sroa.5.0..sroa.7.0..sroa_idx.sroa_idx, align 8, !tbaa !45
  br label %_ZNK5boost4urls6detail11format_args3getEm.exit

_ZNK5boost4urls6detail11format_args3getEm.exit:   ; preds = %_ZN5boost4coreeqENS0_17basic_string_viewIcEES2_.exit.thread10.i, %_ZN5boost4coreeqENS0_17basic_string_viewIcEES2_.exit.thread10.i.us, %_ZNK5boost4urls6detail11format_args3getEm.exit.sink.split, %9, %7
  %.sroa.14.0 = phi i64 [ 0, %7 ], [ 0, %9 ], [ %.sroa.7.sroa.5.0.copyload, %_ZNK5boost4urls6detail11format_args3getEm.exit.sink.split ], [ 0, %_ZN5boost4coreeqENS0_17basic_string_viewIcEES2_.exit.thread10.i.us ], [ 0, %_ZN5boost4coreeqENS0_17basic_string_viewIcEES2_.exit.thread10.i ]
  store i64 %.sroa.14.0, ptr %5, align 8, !tbaa !45
  ret void
}